; ModuleID = '50/399.c'
source_filename = "50/399.c"
target datalayout = "e-m:e-p270:32:32-p271:32:32-p272:64:64-i64:64-f80:128-n8:16:32:64-S128"
target triple = "x86_64-pc-linux-gnu"

@__const.main.a = private unnamed_addr constant [13 x i32] [i32 0, i32 13, i32 44, i32 72, i32 103, i32 133, i32 164, i32 194, i32 225, i32 256, i32 286, i32 317, i32 347], align 16
@.str = private unnamed_addr constant [3 x i8] c"%d\00", align 1
@.str.1 = private unnamed_addr constant [4 x i8] c"%d\0A\00", align 1

; Function Attrs: noinline nounwind uwtable
define dso_local i32 @main(i32 %0, i8** %1) #0 {
  %3 = alloca i32, align 4
  %4 = alloca i32, align 4
  %5 = alloca i8**, align 8
  %6 = alloca [13 x i32], align 16
  %7 = alloca i32, align 4
  %8 = alloca i32, align 4
  %9 = alloca i32, align 4
  %10 = alloca i32, align 4
  %11 = alloca [13 x i32], align 16
  store i32 0, i32* %3, align 4
  store i32 %0, i32* %4, align 4
  store i8** %1, i8*** %5, align 8
  %12 = bitcast [13 x i32]* %6 to i8*
  call void @llvm.memcpy.p0i8.p0i8.i64(i8* align 16 %12, i8* align 16 bitcast ([13 x i32]* @__const.main.a to i8*), i64 52, i1 false)
  %13 = call i32 (i8*, ...) @__isoc99_scanf(i8* getelementptr inbounds ([3 x i8], [3 x i8]* @.str, i64 0, i64 0), i32* %7)
  store i32 1, i32* %9, align 4
  br label %14

14:                                               ; preds = %40, %2
  %15 = load i32, i32* %9, align 4
  %16 = icmp sle i32 %15, 12
  br i1 %16, label %17, label %43

17:                                               ; preds = %14
  %18 = load i32, i32* %7, align 4
  %19 = load i32, i32* %9, align 4
  %20 = sext i32 %19 to i64
  %21 = getelementptr inbounds [13 x i32], [13 x i32]* %6, i64 0, i64 %20
  %22 = load i32, i32* %21, align 4
  %23 = srem i32 %22, 7
  %24 = add nsw i32 %18, %23
  %25 = sub nsw i32 %24, 1
  store i32 %25, i32* %8, align 4
  %26 = load i32, i32* %8, align 4
  %27 = icmp slt i32 %26, 8
  br i1 %27, label %28, label %33

28:                                               ; preds = %17
  %29 = load i32, i32* %8, align 4
  %30 = load i32, i32* %9, align 4
  %31 = sext i32 %30 to i64
  %32 = getelementptr inbounds [13 x i32], [13 x i32]* %11, i64 0, i64 %31
  store i32 %29, i32* %32, align 4
  br label %39

33:                                               ; preds = %17
  %34 = load i32, i32* %8, align 4
  %35 = sub nsw i32 %34, 7
  %36 = load i32, i32* %9, align 4
  %37 = sext i32 %36 to i64
  %38 = getelementptr inbounds [13 x i32], [13 x i32]* %11, i64 0, i64 %37
  store i32 %35, i32* %38, align 4
  br label %39

39:                                               ; preds = %33, %28
  br label %40

40:                                               ; preds = %39
  %41 = load i32, i32* %9, align 4
  %42 = add nsw i32 %41, 1
  store i32 %42, i32* %9, align 4
  br label %14

43:                                               ; preds = %14
  store i32 1, i32* %10, align 4
  br label %44

44:                                               ; preds = %57, %43
  %45 = load i32, i32* %10, align 4
  %46 = icmp sle i32 %45, 12
  br i1 %46, label %47, label %60

47:                                               ; preds = %44
  %48 = load i32, i32* %10, align 4
  %49 = sext i32 %48 to i64
  %50 = getelementptr inbounds [13 x i32], [13 x i32]* %11, i64 0, i64 %49
  %51 = load i32, i32* %50, align 4
  %52 = icmp eq i32 %51, 5
  br i1 %52, label %53, label %56

53:                                               ; preds = %47
  %54 = load i32, i32* %10, align 4
  %55 = call i32 (i8*, ...) @printf(i8* getelementptr inbounds ([4 x i8], [4 x i8]* @.str.1, i64 0, i64 0), i32 %54)
  br label %56

56:                                               ; preds = %53, %47
  br label %57

57:                                               ; preds = %56
  %58 = load i32, i32* %10, align 4
  %59 = add nsw i32 %58, 1
  store i32 %59, i32* %10, align 4
  br label %44

60:                                               ; preds = %44
  ret i32 0
}

; Function Attrs: argmemonly nounwind willreturn
declare void @llvm.memcpy.p0i8.p0i8.i64(i8* noalias nocapture writeonly, i8* noalias nocapture readonly, i64, i1 immarg) #1

declare dso_local i32 @__isoc99_scanf(i8*, ...) #2

declare dso_local i32 @printf(i8*, ...) #2


!llvm.module.flags = !{!0}
!llvm.ident = !{!1}

!0 = !{i32 1, !"wchar_size", i32 4}
!1 = !{!"clang version 10.0.0-4ubuntu1 "}
